	.file	"ata.c"
	.text
.Ltext0:
	.cfi_sections	.debug_frame
	.file 0 "/home/yohda/workspace/SW/bare-metal/yohdaOS/chap16/02.Kernel64/src/bootloader/x86/p32" "ata.c"
	.globl	ata
	.section	.bss
	.align 4
	.type	ata, @object
	.size	ata, 10
ata:
	.zero	10
	.text
	.globl	ata_sw_rst
	.type	ata_sw_rst, @function
ata_sw_rst:
.LFB0:
	.file 1 "ata.c"
	.loc 1 30 1
	.cfi_startproc
	pushl	%ebp
	.cfi_def_cfa_offset 8
	.cfi_offset 5, -8
	movl	%esp, %ebp
	.cfi_def_cfa_register 5
	subl	$8, %esp
	.loc 1 31 2
	subl	$8, %esp
	pushl	$4
	pushl	$1014
	call	outb
	addl	$16, %esp
	.loc 1 32 2
	call	ata_is_ready
	.loc 1 34 2
	subl	$8, %esp
	pushl	$64
	pushl	$502
	call	outb
	addl	$16, %esp
	.loc 1 35 1
	nop
	leave
	.cfi_restore 5
	.cfi_def_cfa 4, 4
	ret
	.cfi_endproc
.LFE0:
	.size	ata_sw_rst, .-ata_sw_rst
	.globl	ata_diag_disk
	.type	ata_diag_disk, @function
ata_diag_disk:
.LFB1:
	.loc 1 39 1
	.cfi_startproc
	pushl	%ebp
	.cfi_def_cfa_offset 8
	.cfi_offset 5, -8
	movl	%esp, %ebp
	.cfi_def_cfa_register 5
	subl	$24, %esp
	.loc 1 40 5
	movb	$-1, -13(%ebp)
	.loc 1 40 15
	movb	$0, -14(%ebp)
	.loc 1 40 23
	movb	$0, -15(%ebp)
.LBB2:
	.loc 1 43 5
	call	ata_is_ready
	.loc 1 43 4
	testl	%eax, %eax
	jns	.L3
	.loc 1 44 10
	movl	$-1, %eax
	jmp	.L4
.L3:
.LBE2:
	.loc 1 46 2
	subl	$8, %esp
	pushl	$144
	pushl	$503
	call	outb
	addl	$16, %esp
	.loc 1 47 7
	movl	$0, -12(%ebp)
	.loc 1 47 2
	jmp	.L5
.L6:
	.loc 1 47 19 discriminator 3
	addl	$1, -12(%ebp)
.L5:
	.loc 1 47 11 discriminator 1
	cmpl	$29999, -12(%ebp)
	jle	.L6
.LBB3:
	.loc 1 49 5
	call	ata_is_ready
	.loc 1 49 4
	testl	%eax, %eax
	jns	.L7
	.loc 1 50 10
	movl	$-1, %eax
	jmp	.L4
.L7:
.LBE3:
	.loc 1 52 8
	subl	$12, %esp
	pushl	$497
	call	inb
	addl	$16, %esp
	movb	%al, -13(%ebp)
	.loc 1 53 9
	movzbl	-13(%ebp), %eax
	andl	$129, %eax
	.loc 1 53 4
	testl	%eax, %eax
	je	.L8
	.loc 1 54 15
	movb	$1, ata
.L8:
	.loc 1 56 8
	subl	$12, %esp
	pushl	$369
	call	inb
	addl	$16, %esp
	movb	%al, -13(%ebp)
	.loc 1 57 9
	movzbl	-13(%ebp), %eax
	andl	$129, %eax
	.loc 1 57 4
	testl	%eax, %eax
	je	.L9
	.loc 1 58 15
	movb	$1, ata+1
.L9:
	.loc 1 60 14
	movzbl	ata, %eax
	.loc 1 60 4
	testb	%al, %al
	jne	.L10
	.loc 1 60 30 discriminator 1
	movzbl	ata+1, %eax
	.loc 1 60 18 discriminator 1
	testb	%al, %al
	jne	.L10
	.loc 1 61 10
	movl	$-1, %eax
	jmp	.L4
.L10:
	.loc 1 63 7
	subl	$12, %esp
	pushl	$500
	call	inb
	addl	$16, %esp
	movb	%al, -14(%ebp)
	.loc 1 64 7
	subl	$12, %esp
	pushl	$501
	call	inb
	addl	$16, %esp
	movb	%al, -15(%ebp)
	.loc 1 66 9
	movl	$-1, %eax
.L4:
	.loc 1 67 1
	leave
	.cfi_restore 5
	.cfi_def_cfa 4, 4
	ret
	.cfi_endproc
.LFE1:
	.size	ata_diag_disk, .-ata_diag_disk
	.globl	ata_is_ready
	.type	ata_is_ready, @function
ata_is_ready:
.LFB2:
	.loc 1 70 1
	.cfi_startproc
	pushl	%ebp
	.cfi_def_cfa_offset 8
	.cfi_offset 5, -8
	movl	%esp, %ebp
	.cfi_def_cfa_register 5
	subl	$24, %esp
	.loc 1 71 5
	movb	$0, -9(%ebp)
	.loc 1 72 6
	movl	$0, -16(%ebp)
.L14:
	.loc 1 75 12
	subl	$12, %esp
	pushl	$503
	call	inb
	addl	$16, %esp
	movb	%al, -9(%ebp)
	.loc 1 76 6
	movzbl	-9(%ebp), %eax
	.loc 1 76 5
	testb	%al, %al
	js	.L14
	.loc 1 76 30 discriminator 1
	movzbl	-9(%ebp), %eax
	andl	$64, %eax
	.loc 1 76 26 discriminator 1
	testl	%eax, %eax
	jne	.L14
	.loc 1 77 11
	movl	$1, %eax
	.loc 1 82 1
	leave
	.cfi_restore 5
	.cfi_def_cfa 4, 4
	ret
	.cfi_endproc
.LFE2:
	.size	ata_is_ready, .-ata_is_ready
	.globl	ata_init
	.type	ata_init, @function
ata_init:
.LFB3:
	.loc 1 85 1
	.cfi_startproc
	pushl	%ebp
	.cfi_def_cfa_offset 8
	.cfi_offset 5, -8
	movl	%esp, %ebp
	.cfi_def_cfa_register 5
	subl	$8, %esp
	.loc 1 87 2
	subl	$4, %esp
	pushl	$10
	pushl	$0
	pushl	$ata
	call	memset
	addl	$16, %esp
	.loc 1 88 2
	call	ata_diag_disk
	.loc 1 89 1
	nop
	leave
	.cfi_restore 5
	.cfi_def_cfa 4, 4
	ret
	.cfi_endproc
.LFE3:
	.size	ata_init, .-ata_init
	.type	ata_write, @function
ata_write:
.LFB4:
	.loc 1 92 1
	.cfi_startproc
	pushl	%ebp
	.cfi_def_cfa_offset 8
	.cfi_offset 5, -8
	movl	%esp, %ebp
	.cfi_def_cfa_register 5
	.loc 1 94 1
	nop
	popl	%ebp
	.cfi_restore 5
	.cfi_def_cfa 4, 4
	ret
	.cfi_endproc
.LFE4:
	.size	ata_write, .-ata_write
	.globl	ata_write_cmd
	.type	ata_write_cmd, @function
ata_write_cmd:
.LFB5:
	.loc 1 97 1
	.cfi_startproc
	pushl	%ebp
	.cfi_def_cfa_offset 8
	.cfi_offset 5, -8
	movl	%esp, %ebp
	.cfi_def_cfa_register 5
	.loc 1 99 1
	nop
	popl	%ebp
	.cfi_restore 5
	.cfi_def_cfa 4, 4
	ret
	.cfi_endproc
.LFE5:
	.size	ata_write_cmd, .-ata_write_cmd
	.globl	ata_write_data
	.type	ata_write_data, @function
ata_write_data:
.LFB6:
	.loc 1 102 1
	.cfi_startproc
	pushl	%ebp
	.cfi_def_cfa_offset 8
	.cfi_offset 5, -8
	movl	%esp, %ebp
	.cfi_def_cfa_register 5
	.loc 1 104 1
	nop
	popl	%ebp
	.cfi_restore 5
	.cfi_def_cfa 4, 4
	ret
	.cfi_endproc
.LFE6:
	.size	ata_write_data, .-ata_write_data
	.globl	ata_read
	.type	ata_read, @function
ata_read:
.LFB7:
	.loc 1 107 1
	.cfi_startproc
	pushl	%ebp
	.cfi_def_cfa_offset 8
	.cfi_offset 5, -8
	movl	%esp, %ebp
	.cfi_def_cfa_register 5
	.loc 1 109 1
	nop
	popl	%ebp
	.cfi_restore 5
	.cfi_def_cfa 4, 4
	ret
	.cfi_endproc
.LFE7:
	.size	ata_read, .-ata_read
.Letext0:
	.file 2 "/home/yohda/workspace/SW/bare-metal/yohdaOS/chap16/02.Kernel64/src/include/type.h"
	.file 3 "ata.h"
	.file 4 "/home/yohda/workspace/SW/bare-metal/yohdaOS/chap16/02.Kernel64/src/include/string.h"